target datalayout = "e-m:e-p270:32:32-p271:32:32-p272:64:64-i64:64-i128:128-f80:128-n8:16:32:64-S128"
target triple = "x86_64-pc-linux-gnu"

%struct.evthread_lock_callbacks = type { i32, i32, ptr, ptr, ptr, ptr }
%struct.evdns_server_port = type { i32, i32, i8, i8, ptr, ptr, %struct.event, ptr, ptr, ptr, %struct.client_list, i32, i32, %struct.timeval, ptr }
%struct.event = type { %struct.event_callback, %union.anon.0, i32, i16, i16, ptr, %union.anon.2, %struct.timeval }
%struct.event_callback = type { %struct.anon, i16, i8, i8, %union.anon, ptr }
%struct.anon = type { ptr, ptr }
%union.anon = type { ptr }
%union.anon.0 = type { %struct.anon.1 }
%struct.anon.1 = type { ptr, ptr }
%union.anon.2 = type { %struct.anon.3 }
%struct.anon.3 = type { %struct.anon.4, %struct.timeval }
%struct.anon.4 = type { ptr, ptr }
%struct.client_list = type { ptr }
%struct.timeval = type { i64, i64 }
%struct.client_tcp_connection = type { %struct.anon.12, %struct.tcp_connection, ptr }
%struct.anon.12 = type { ptr, ptr }
%struct.tcp_connection = type { ptr, i32, i16 }

@evthread_lock_fns_ = external global %struct.evthread_lock_callbacks, align 8
@.str.38 = private unnamed_addr constant [22 x i8] c"Closing connection %p\00", align 1

; Function Attrs: nounwind uwtable
define internal void @evdns_tcp_disconnect(ptr noundef %0) #0 {
  %2 = alloca ptr, align 8
  store ptr %0, ptr %2, align 8
  %3 = load ptr, ptr %2, align 8
  %4 = icmp ne ptr %3, null
  br i1 %4, label %6, label %5

5:                                                ; preds = %1
  br label %21

6:                                                ; preds = %1
  %7 = load ptr, ptr %2, align 8
  %8 = getelementptr inbounds nuw %struct.tcp_connection, ptr %7, i32 0, i32 1
  store i32 0, ptr %8, align 8
  %9 = load ptr, ptr %2, align 8
  %10 = getelementptr inbounds nuw %struct.tcp_connection, ptr %9, i32 0, i32 2
  store i16 0, ptr %10, align 4
  %11 = load ptr, ptr %2, align 8
  %12 = getelementptr inbounds nuw %struct.tcp_connection, ptr %11, i32 0, i32 0
  %13 = load ptr, ptr %12, align 8
  %14 = icmp ne ptr %13, null
  br i1 %14, label %15, label %21

15:                                               ; preds = %6
  %16 = load ptr, ptr %2, align 8
  %17 = getelementptr inbounds nuw %struct.tcp_connection, ptr %16, i32 0, i32 0
  %18 = load ptr, ptr %17, align 8
  call void @bufferevent_free(ptr noundef %18)
  %19 = load ptr, ptr %2, align 8
  %20 = getelementptr inbounds nuw %struct.tcp_connection, ptr %19, i32 0, i32 0
  store ptr null, ptr %20, align 8
  br label %21

21:                                               ; preds = %5, %15, %6
  ret void
}

; Function Attrs: nounwind uwtable
define internal void @server_port_free(ptr noundef %0) #0 {
  %2 = alloca ptr, align 8
  %3 = alloca ptr, align 8
  store ptr %0, ptr %2, align 8
  br label %4

4:                                                ; preds = %1
  br label %5

5:                                                ; preds = %4
  br label %6

6:                                                ; preds = %5
  br label %7

7:                                                ; preds = %6
  br label %8

8:                                                ; preds = %7
  br label %9

9:                                                ; preds = %8
  %10 = load ptr, ptr %2, align 8
  %11 = getelementptr inbounds nuw %struct.evdns_server_port, ptr %10, i32 0, i32 0
  %12 = load i32, ptr %11, align 8
  %13 = icmp sgt i32 %12, 0
  br i1 %13, label %14, label %21

14:                                               ; preds = %9
  %15 = load ptr, ptr %2, align 8
  %16 = getelementptr inbounds nuw %struct.evdns_server_port, ptr %15, i32 0, i32 0
  %17 = load i32, ptr %16, align 8
  %18 = call i32 @evutil_closesocket(i32 noundef %17)
  %19 = load ptr, ptr %2, align 8
  %20 = getelementptr inbounds nuw %struct.evdns_server_port, ptr %19, i32 0, i32 0
  store i32 -1, ptr %20, align 8
  br label %21

21:                                               ; preds = %14, %9
  %22 = load ptr, ptr %2, align 8
  %23 = getelementptr inbounds nuw %struct.evdns_server_port, ptr %22, i32 0, i32 9
  %24 = load ptr, ptr %23, align 8
  %25 = icmp ne ptr %24, null
  br i1 %25, label %26, label %30

26:                                               ; preds = %21
  %27 = load ptr, ptr %2, align 8
  %28 = getelementptr inbounds nuw %struct.evdns_server_port, ptr %27, i32 0, i32 9
  %29 = load ptr, ptr %28, align 8
  call void @evconnlistener_free(ptr noundef %29)
  br label %36

30:                                               ; preds = %21
  %31 = load ptr, ptr %2, align 8
  %32 = getelementptr inbounds nuw %struct.evdns_server_port, ptr %31, i32 0, i32 6
  %33 = call i32 @event_del(ptr noundef %32)
  %34 = load ptr, ptr %2, align 8
  %35 = getelementptr inbounds nuw %struct.evdns_server_port, ptr %34, i32 0, i32 6
  call void @event_debug_unassign(ptr noundef %35)
  br label %36

36:                                               ; preds = %30, %26
  br label %37

37:                                               ; preds = %36
  call void @llvm.lifetime.start.p0(i64 8, ptr %3) #10
  %38 = load ptr, ptr %2, align 8
  %39 = getelementptr inbounds nuw %struct.evdns_server_port, ptr %38, i32 0, i32 14
  %40 = load ptr, ptr %39, align 8
  store ptr %40, ptr %3, align 8
  %41 = load ptr, ptr %3, align 8
  %42 = icmp ne ptr %41, null
  br i1 %42, label %43, label %49

43:                                               ; preds = %37
  %44 = load ptr, ptr getelementptr inbounds nuw (%struct.evthread_lock_callbacks, ptr @evthread_lock_fns_, i32 0, i32 3), align 8
  %45 = icmp ne ptr %44, null
  br i1 %45, label %46, label %49

46:                                               ; preds = %43
  %47 = load ptr, ptr getelementptr inbounds nuw (%struct.evthread_lock_callbacks, ptr @evthread_lock_fns_, i32 0, i32 3), align 8
  %48 = load ptr, ptr %3, align 8
  call void %47(ptr noundef %48, i32 noundef 1)
  br label %49

49:                                               ; preds = %46, %43, %37
  call void @llvm.lifetime.end.p0(i64 8, ptr %3) #10
  br label %50

50:                                               ; preds = %49
  %51 = load ptr, ptr %2, align 8
  call void @event_mm_free_(ptr noundef %51)
  ret void
}

; Function Attrs: nounwind uwtable
define internal i32 @evdns_remove_tcp_client(ptr noundef %0, ptr noundef %1) #0 {
  %3 = alloca i32, align 4
  %4 = alloca ptr, align 8
  %5 = alloca ptr, align 8
  store ptr %0, ptr %4, align 8
  store ptr %1, ptr %5, align 8
  %6 = load ptr, ptr %4, align 8
  %7 = icmp ne ptr %6, null
  br i1 %7, label %8, label %11

8:                                                ; preds = %2
  %9 = load ptr, ptr %5, align 8
  %10 = icmp ne ptr %9, null
  br i1 %10, label %12, label %11

11:                                               ; preds = %8, %2
  br label %51

12:                                               ; preds = %8
  %13 = load ptr, ptr %5, align 8
  %14 = getelementptr inbounds nuw %struct.client_tcp_connection, ptr %13, i32 0, i32 1
  call void @evdns_tcp_disconnect(ptr noundef %14)
  br label %15

15:                                               ; preds = %12
  %16 = load ptr, ptr %5, align 8
  %17 = getelementptr inbounds nuw %struct.client_tcp_connection, ptr %16, i32 0, i32 0
  %18 = getelementptr inbounds nuw %struct.anon.12, ptr %17, i32 0, i32 0
  %19 = load ptr, ptr %18, align 8
  %20 = icmp ne ptr %19, null
  br i1 %20, label %21, label %32

21:                                               ; preds = %15
  %22 = load ptr, ptr %5, align 8
  %23 = getelementptr inbounds nuw %struct.client_tcp_connection, ptr %22, i32 0, i32 0
  %24 = getelementptr inbounds nuw %struct.anon.12, ptr %23, i32 0, i32 1
  %25 = load ptr, ptr %24, align 8
  %26 = load ptr, ptr %5, align 8
  %27 = getelementptr inbounds nuw %struct.client_tcp_connection, ptr %26, i32 0, i32 0
  %28 = getelementptr inbounds nuw %struct.anon.12, ptr %27, i32 0, i32 0
  %29 = load ptr, ptr %28, align 8
  %30 = getelementptr inbounds nuw %struct.client_tcp_connection, ptr %29, i32 0, i32 0
  %31 = getelementptr inbounds nuw %struct.anon.12, ptr %30, i32 0, i32 1
  store ptr %25, ptr %31, align 8
  br label %32

32:                                               ; preds = %21, %15
  %33 = load ptr, ptr %5, align 8
  %34 = getelementptr inbounds nuw %struct.client_tcp_connection, ptr %33, i32 0, i32 0
  %35 = getelementptr inbounds nuw %struct.anon.12, ptr %34, i32 0, i32 0
  %36 = load ptr, ptr %35, align 8
  %37 = load ptr, ptr %5, align 8
  %38 = getelementptr inbounds nuw %struct.client_tcp_connection, ptr %37, i32 0, i32 0
  %39 = getelementptr inbounds nuw %struct.anon.12, ptr %38, i32 0, i32 1
  %40 = load ptr, ptr %39, align 8
  store ptr %36, ptr %40, align 8
  br label %41

41:                                               ; preds = %32
  %42 = load ptr, ptr %5, align 8
  call void @event_mm_free_(ptr noundef %42)
  %43 = load ptr, ptr %4, align 8
  %44 = getelementptr inbounds nuw %struct.evdns_server_port, ptr %43, i32 0, i32 11
  %45 = load i32, ptr %44, align 8
  %46 = add i32 %45, -1
  store i32 %46, ptr %44, align 8
  %47 = load ptr, ptr %4, align 8
  %48 = getelementptr inbounds nuw %struct.evdns_server_port, ptr %47, i32 0, i32 1
  %49 = load i32, ptr %48, align 4
  %50 = add nsw i32 %49, -1
  store i32 %50, ptr %48, align 4
  store i32 0, ptr %3, align 4
  br label %52

51:                                               ; preds = %11
  store i32 -1, ptr %3, align 4
  br label %52

52:                                               ; preds = %51, %41
  %53 = load i32, ptr %3, align 4
  ret i32 %53
}

; Function Attrs: nounwind uwtable
define internal void @server_tcp_event_cb(ptr noundef %0, i16 noundef signext %1, ptr noundef %2) #0 {
  %4 = alloca ptr, align 8
  %5 = alloca i16, align 2
  %6 = alloca ptr, align 8
  %7 = alloca ptr, align 8
  %8 = alloca ptr, align 8
  %9 = alloca i32, align 4
  store ptr %0, ptr %4, align 8
  store i16 %1, ptr %5, align 2
  store ptr %2, ptr %6, align 8
  call void @llvm.lifetime.start.p0(i64 8, ptr %7) #10
  %10 = load ptr, ptr %6, align 8
  store ptr %10, ptr %7, align 8
  call void @llvm.lifetime.start.p0(i64 8, ptr %8) #10
  %11 = load ptr, ptr %7, align 8
  %12 = getelementptr inbounds nuw %struct.client_tcp_connection, ptr %11, i32 0, i32 2
  %13 = load ptr, ptr %12, align 8
  store ptr %13, ptr %8, align 8
  call void @llvm.lifetime.start.p0(i64 4, ptr %9) #10
  br label %14

14:                                               ; preds = %3
  br label %15

15:                                               ; preds = %14
  br label %16

16:                                               ; preds = %15
  br label %17

17:                                               ; preds = %16
  %18 = load ptr, ptr %8, align 8
  %19 = getelementptr inbounds nuw %struct.evdns_server_port, ptr %18, i32 0, i32 14
  %20 = load ptr, ptr %19, align 8
  %21 = icmp ne ptr %20, null
  br i1 %21, label %22, label %28

22:                                               ; preds = %17
  %23 = load ptr, ptr getelementptr inbounds nuw (%struct.evthread_lock_callbacks, ptr @evthread_lock_fns_, i32 0, i32 4), align 8
  %24 = load ptr, ptr %8, align 8
  %25 = getelementptr inbounds nuw %struct.evdns_server_port, ptr %24, i32 0, i32 14
  %26 = load ptr, ptr %25, align 8
  %27 = call i32 %23(i32 noundef 0, ptr noundef %26)
  br label %28

28:                                               ; preds = %22, %17
  br label %29

29:                                               ; preds = %28
  br label %30

30:                                               ; preds = %29
  %31 = load i16, ptr %5, align 2
  %32 = sext i16 %31 to i32
  %33 = and i32 %32, 112
  %34 = icmp ne i32 %33, 0
  br i1 %34, label %35, label %40

35:                                               ; preds = %30
  %36 = load ptr, ptr %4, align 8
  call void (i32, ptr, ...) @evdns_log_(i32 noundef 0, ptr noundef @.str.38, ptr noundef %36)
  %37 = load ptr, ptr %8, align 8
  %38 = load ptr, ptr %7, align 8
  %39 = call i32 @evdns_remove_tcp_client(ptr noundef %37, ptr noundef %38)
  br label %40

40:                                               ; preds = %35, %30
  %41 = load ptr, ptr %8, align 8
  %42 = getelementptr inbounds nuw %struct.evdns_server_port, ptr %41, i32 0, i32 1
  %43 = load i32, ptr %42, align 4
  store i32 %43, ptr %9, align 4
  br label %44

44:                                               ; preds = %40
  %45 = load ptr, ptr %8, align 8
  %46 = getelementptr inbounds nuw %struct.evdns_server_port, ptr %45, i32 0, i32 14
  %47 = load ptr, ptr %46, align 8
  %48 = icmp ne ptr %47, null
  br i1 %48, label %49, label %55

49:                                               ; preds = %44
  %50 = load ptr, ptr getelementptr inbounds nuw (%struct.evthread_lock_callbacks, ptr @evthread_lock_fns_, i32 0, i32 5), align 8
  %51 = load ptr, ptr %8, align 8
  %52 = getelementptr inbounds nuw %struct.evdns_server_port, ptr %51, i32 0, i32 14
  %53 = load ptr, ptr %52, align 8
  %54 = call i32 %50(i32 noundef 0, ptr noundef %53)
  br label %55

55:                                               ; preds = %49, %44
  br label %56

56:                                               ; preds = %55
  br label %57

57:                                               ; preds = %56
  %58 = load i32, ptr %9, align 4
  %59 = icmp ne i32 %58, 0
  br i1 %59, label %62, label %60

60:                                               ; preds = %57
  %61 = load ptr, ptr %8, align 8
  call void @server_port_free(ptr noundef %61)
  br label %62

62:                                               ; preds = %60, %57
  call void @llvm.lifetime.end.p0(i64 4, ptr %9) #10
  call void @llvm.lifetime.end.p0(i64 8, ptr %8) #10
  call void @llvm.lifetime.end.p0(i64 8, ptr %7) #10
  ret void
}