; Function Attrs: nounwind uwtable
define internal void @server_tcp_event_cb(ptr noundef %0, i16 noundef signext %1, ptr noundef %2) #2 {
  %4 = getelementptr inbounds nuw i8, ptr %2, i64 32
  %5 = load ptr, ptr %4, align 8
  %6 = getelementptr inbounds nuw i8, ptr %5, i64 208
  %7 = load ptr, ptr %6, align 8
  %.not = icmp eq ptr %7, null
  br i1 %.not, label %11, label %8

8:                                                ; preds = %3
  %9 = load ptr, ptr getelementptr inbounds nuw (i8, ptr @evthread_lock_fns_, i64 24), align 8
  %10 = tail call i32 %9(i32 noundef 0, ptr noundef nonnull %7) #21
  br label %11

11:                                               ; preds = %8, %3
  %12 = and i16 %1, 112
  %.not13 = icmp eq i16 %12, 0
  br i1 %.not13, label %.evdns_remove_tcp_client.exit_crit_edge, label %13

.evdns_remove_tcp_client.exit_crit_edge:          ; preds = %11
  %.phi.trans.insert = getelementptr inbounds nuw i8, ptr %5, i64 4
  %.pre = load i32, ptr %.phi.trans.insert, align 4
  br label %evdns_remove_tcp_client.exit

13:                                               ; preds = %11
  tail call void (i32, ptr, ...) @evdns_log_(i32 noundef 0, ptr noundef nonnull @.str.38, ptr noundef %0)
  %14 = getelementptr inbounds nuw i8, ptr %2, i64 16
  %15 = getelementptr inbounds nuw i8, ptr %2, i64 24
  store i32 0, ptr %15, align 8
  %16 = getelementptr inbounds nuw i8, ptr %2, i64 28
  store i16 0, ptr %16, align 4
  %17 = load ptr, ptr %14, align 8
  %.not.i.i = icmp eq ptr %17, null
  br i1 %.not.i.i, label %evdns_tcp_disconnect.exit.i, label %18

18:                                               ; preds = %13
  tail call void @bufferevent_free(ptr noundef nonnull %17) #21
  store ptr null, ptr %14, align 8
  br label %evdns_tcp_disconnect.exit.i

evdns_tcp_disconnect.exit.i:                      ; preds = %18, %13
  %19 = load ptr, ptr %2, align 8
  %.not.i = icmp eq ptr %19, null
  %.phi.trans.insert.i = getelementptr inbounds nuw i8, ptr %2, i64 8
  %.pre15.i = load ptr, ptr %.phi.trans.insert.i, align 8
  br i1 %.not.i, label %evdns_tcp_disconnect.exit._crit_edge.i, label %20

20:                                               ; preds = %evdns_tcp_disconnect.exit.i
  %21 = getelementptr inbounds nuw i8, ptr %19, i64 8
  store ptr %.pre15.i, ptr %21, align 8
  %.pre.i = load ptr, ptr %2, align 8
  br label %evdns_tcp_disconnect.exit._crit_edge.i

evdns_tcp_disconnect.exit._crit_edge.i:           ; preds = %20, %evdns_tcp_disconnect.exit.i
  %22 = phi ptr [ %.pre.i, %20 ], [ null, %evdns_tcp_disconnect.exit.i ]
  store ptr %22, ptr %.pre15.i, align 8
  tail call void @event_mm_free_(ptr noundef nonnull %2) #21
  %23 = getelementptr inbounds nuw i8, ptr %5, i64 184
  %24 = load i32, ptr %23, align 8
  %25 = add i32 %24, -1
  store i32 %25, ptr %23, align 8
  %26 = getelementptr inbounds nuw i8, ptr %5, i64 4
  %27 = load i32, ptr %26, align 4
  %28 = add nsw i32 %27, -1
  store i32 %28, ptr %26, align 4
  br label %evdns_remove_tcp_client.exit

evdns_remove_tcp_client.exit:                     ; preds = %.evdns_remove_tcp_client.exit_crit_edge, %evdns_tcp_disconnect.exit._crit_edge.i
  %29 = phi i32 [ %.pre, %.evdns_remove_tcp_client.exit_crit_edge ], [ %28, %evdns_tcp_disconnect.exit._crit_edge.i ]
  %30 = load ptr, ptr %6, align 8
  %.not14 = icmp eq ptr %30, null
  br i1 %.not14, label %34, label %31

31:                                               ; preds = %evdns_remove_tcp_client.exit
  %32 = load ptr, ptr getelementptr inbounds nuw (i8, ptr @evthread_lock_fns_, i64 32), align 8
  %33 = tail call i32 %32(i32 noundef 0, ptr noundef nonnull %30) #21
  br label %34

34:                                               ; preds = %31, %evdns_remove_tcp_client.exit
  %.not15 = icmp eq i32 %29, 0
  br i1 %.not15, label %35, label %53

35:                                               ; preds = %34
  %36 = load i32, ptr %5, align 8
  %37 = icmp sgt i32 %36, 0
  br i1 %37, label %38, label %40

38:                                               ; preds = %35
  %39 = tail call i32 @evutil_closesocket(i32 noundef %36) #21
  store i32 -1, ptr %5, align 8
  br label %40

40:                                               ; preds = %38, %35
  %41 = getelementptr inbounds nuw i8, ptr %5, i64 168
  %42 = load ptr, ptr %41, align 8
  %.not.i16 = icmp eq ptr %42, null
  br i1 %.not.i16, label %44, label %43

43:                                               ; preds = %40
  tail call void @evconnlistener_free(ptr noundef nonnull %42) #21
  br label %47

44:                                               ; preds = %40
  %45 = getelementptr inbounds nuw i8, ptr %5, i64 32
  %46 = tail call i32 @event_del(ptr noundef nonnull %45) #21
  tail call void @event_debug_unassign(ptr noundef nonnull %45) #21
  br label %47

47:                                               ; preds = %44, %43
  %48 = load ptr, ptr %6, align 8
  %49 = icmp ne ptr %48, null
  %50 = load ptr, ptr getelementptr inbounds nuw (i8, ptr @evthread_lock_fns_, i64 16), align 8
  %51 = icmp ne ptr %50, null
  %or.cond.i17 = select i1 %49, i1 %51, i1 false
  br i1 %or.cond.i17, label %52, label %server_port_free.exit

52:                                               ; preds = %47
  tail call void %50(ptr noundef nonnull %48, i32 noundef 1) #21
  br label %server_port_free.exit

server_port_free.exit:                            ; preds = %47, %52
  tail call void @event_mm_free_(ptr noundef nonnull %5) #21
  br label %53

53:                                               ; preds = %server_port_free.exit, %34
  ret void
}